target datalayout = "e-m:e-p270:32:32-p271:32:32-p272:64:64-i64:64-i128:128-f80:128-n8:16:32:64-S128"
target triple = "x86_64-pc-linux-gnu"

%struct._typeobject = type { %struct.PyVarObject, ptr, i64, i64, ptr, i64, ptr, ptr, ptr, ptr, ptr, ptr, ptr, ptr, ptr, ptr, ptr, ptr, ptr, i64, ptr, ptr, ptr, ptr, i64, ptr, ptr, ptr, ptr, ptr, ptr, ptr, ptr, ptr, i64, ptr, ptr, ptr, ptr, ptr, ptr, ptr, ptr, ptr, ptr, ptr, i32, ptr, ptr, i8, i16 }
%struct.PyVarObject = type { %struct._object, i64 }
%struct._object = type { %union.anon.58, ptr }
%union.anon.58 = type { i64 }
%struct.asdl_stmt_seq = type { i64, ptr, [1 x ptr] }
%struct._expr = type { i32, %union.anon.30, i32, i32, i32, i32 }
%union.anon.30 = type { %struct.anon.33 }
%struct.anon.33 = type { ptr, i32, ptr }
%struct.anon.50 = type { ptr, ptr }
%struct._stmt = type { i32, %union.anon.4, i32, i32, i32, i32 }
%union.anon.4 = type { %struct.anon.5 }
%struct.anon.5 = type { ptr, ptr, ptr, ptr, ptr, ptr, ptr }
%struct.anon.29 = type { ptr }

@PyUnicode_Type = external global %struct._typeobject, align 8

; Function Attrs: inlinehint nounwind uwtable
define internal ptr @_Py_TYPE(ptr noundef %0) #2 {
  %2 = alloca ptr, align 8
  store ptr %0, ptr %2, align 8, !tbaa !30
  %3 = load ptr, ptr %2, align 8, !tbaa !30
  %4 = getelementptr inbounds nuw %struct._object, ptr %3, i32 0, i32 1
  %5 = load ptr, ptr %4, align 8, !tbaa !141
  ret ptr %5
}

; Function Attrs: inlinehint nounwind uwtable
define internal i32 @Py_IS_TYPE(ptr noundef %0, ptr noundef %1) #2 {
  %3 = alloca ptr, align 8
  %4 = alloca ptr, align 8
  store ptr %0, ptr %3, align 8, !tbaa !30
  store ptr %1, ptr %4, align 8, !tbaa !52
  %5 = load ptr, ptr %3, align 8, !tbaa !30
  %6 = call ptr @_Py_TYPE(ptr noundef %5)
  %7 = load ptr, ptr %4, align 8, !tbaa !52
  %8 = icmp eq ptr %6, %7
  %9 = zext i1 %8 to i32
  ret i32 %9
}

; Function Attrs: nounwind uwtable
define hidden ptr @_PyAST_GetDocString(ptr noundef %0) #0 {
  %2 = alloca ptr, align 8
  %3 = alloca ptr, align 8
  %4 = alloca ptr, align 8
  %5 = alloca i32, align 4
  %6 = alloca ptr, align 8
  store ptr %0, ptr %3, align 8, !tbaa !33
  %7 = load ptr, ptr %3, align 8, !tbaa !33
  %8 = icmp eq ptr %7, null
  br i1 %8, label %9, label %10

9:                                                ; preds = %1
  br label %14

10:                                               ; preds = %1
  %11 = load ptr, ptr %3, align 8, !tbaa !33
  %12 = getelementptr inbounds nuw %struct.asdl_stmt_seq, ptr %11, i32 0, i32 0
  %13 = load i64, ptr %12, align 8, !tbaa !35
  br label %14

14:                                               ; preds = %10, %9
  %15 = phi i64 [ 0, %9 ], [ %13, %10 ]
  %16 = icmp ne i64 %15, 0
  br i1 %16, label %18, label %17

17:                                               ; preds = %14
  store ptr null, ptr %2, align 8
  br label %52

18:                                               ; preds = %14
  call void @llvm.lifetime.start.p0(i64 8, ptr %4) #6
  %19 = load ptr, ptr %3, align 8, !tbaa !33
  %20 = getelementptr inbounds nuw %struct.asdl_stmt_seq, ptr %19, i32 0, i32 2
  %21 = getelementptr [1 x ptr], ptr %20, i64 0, i64 0
  %22 = load ptr, ptr %21, align 8, !tbaa !37
  store ptr %22, ptr %4, align 8, !tbaa !37
  %23 = load ptr, ptr %4, align 8, !tbaa !37
  %24 = getelementptr inbounds nuw %struct._stmt, ptr %23, i32 0, i32 0
  %25 = load i32, ptr %24, align 8, !tbaa !50
  %26 = icmp ne i32 %25, 25
  br i1 %26, label %27, label %28

27:                                               ; preds = %18
  store ptr null, ptr %2, align 8
  store i32 1, ptr %5, align 4
  br label %51

28:                                               ; preds = %18
  call void @llvm.lifetime.start.p0(i64 8, ptr %6) #6
  %29 = load ptr, ptr %4, align 8, !tbaa !37
  %30 = getelementptr inbounds nuw %struct._stmt, ptr %29, i32 0, i32 1
  %31 = getelementptr inbounds nuw %struct.anon.29, ptr %30, i32 0, i32 0
  %32 = load ptr, ptr %31, align 8, !tbaa !29
  store ptr %32, ptr %6, align 8, !tbaa !41
  %33 = load ptr, ptr %6, align 8, !tbaa !41
  %34 = getelementptr inbounds nuw %struct._expr, ptr %33, i32 0, i32 0
  %35 = load i32, ptr %34, align 8, !tbaa !48
  %36 = icmp eq i32 %35, 20
  br i1 %36, label %37, label %49

37:                                               ; preds = %28
  %38 = load ptr, ptr %6, align 8, !tbaa !41
  %39 = getelementptr inbounds nuw %struct._expr, ptr %38, i32 0, i32 1
  %40 = getelementptr inbounds nuw %struct.anon.50, ptr %39, i32 0, i32 0
  %41 = load ptr, ptr %40, align 8, !tbaa !29
  %42 = call i32 @Py_IS_TYPE(ptr noundef %41, ptr noundef @PyUnicode_Type)
  %43 = icmp ne i32 %42, 0
  br i1 %43, label %44, label %49

44:                                               ; preds = %37
  %45 = load ptr, ptr %6, align 8, !tbaa !41
  %46 = getelementptr inbounds nuw %struct._expr, ptr %45, i32 0, i32 1
  %47 = getelementptr inbounds nuw %struct.anon.50, ptr %46, i32 0, i32 0
  %48 = load ptr, ptr %47, align 8, !tbaa !29
  store ptr %48, ptr %2, align 8
  store i32 1, ptr %5, align 4
  br label %50

49:                                               ; preds = %37, %28
  store ptr null, ptr %2, align 8
  store i32 1, ptr %5, align 4
  br label %50

50:                                               ; preds = %49, %44
  call void @llvm.lifetime.end.p0(i64 8, ptr %6) #6
  br label %51

51:                                               ; preds = %50, %27
  call void @llvm.lifetime.end.p0(i64 8, ptr %4) #6
  br label %52

52:                                               ; preds = %51, %17
  %53 = load ptr, ptr %2, align 8
  ret ptr %53
}