; Function Attrs: mustprogress nofree norecurse nosync nounwind willreturn memory(read, inaccessiblemem: none) uwtable
define hidden ptr @_PyAST_GetDocString(ptr noundef readonly %0) local_unnamed_addr #3 {
  %2 = icmp eq ptr %0, null
  br i1 %2, label %.critedge, label %3

3:                                                ; preds = %1
  %4 = load i64, ptr %0, align 8, !tbaa !27
  %5 = icmp eq i64 %4, 0
  br i1 %5, label %.critedge, label %6

6:                                                ; preds = %3
  %7 = getelementptr inbounds nuw i8, ptr %0, i64 16
  %8 = load ptr, ptr %7, align 8, !tbaa !34
  %9 = load i32, ptr %8, align 8, !tbaa !41
  %.not10 = icmp eq i32 %9, 25
  br i1 %.not10, label %10, label %.critedge

10:                                               ; preds = %6
  %11 = getelementptr inbounds nuw i8, ptr %8, i64 8
  %12 = load ptr, ptr %11, align 8, !tbaa !26
  %13 = load i32, ptr %12, align 8, !tbaa !49
  %14 = icmp eq i32 %13, 20
  br i1 %14, label %15, label %.critedge

15:                                               ; preds = %10
  %16 = getelementptr inbounds nuw i8, ptr %12, i64 8
  %17 = load ptr, ptr %16, align 8, !tbaa !26
  %18 = getelementptr i8, ptr %17, i64 8
  %.val = load ptr, ptr %18, align 8, !tbaa !80
  %.not = icmp eq ptr %.val, @PyUnicode_Type
  %spec.select = select i1 %.not, ptr %17, ptr null
  br label %.critedge

.critedge:                                        ; preds = %15, %1, %6, %10, %3
  %.0 = phi ptr [ null, %3 ], [ null, %6 ], [ null, %10 ], [ null, %1 ], [ %spec.select, %15 ]
  ret ptr %.0
}